target datalayout = "e-m:e-p270:32:32-p271:32:32-p272:64:64-i64:64-i128:128-f80:128-n8:16:32:64-S128"
target triple = "x86_64-pc-linux-gnu"

%struct.JNINativeInterface_ = type { ptr, ptr, ptr, ptr, ptr, ptr, ptr, ptr, ptr, ptr, ptr, ptr, ptr, ptr, ptr, ptr, ptr, ptr, ptr, ptr, ptr, ptr, ptr, ptr, ptr, ptr, ptr, ptr, ptr, ptr, ptr, ptr, ptr, ptr, ptr, ptr, ptr, ptr, ptr, ptr, ptr, ptr, ptr, ptr, ptr, ptr, ptr, ptr, ptr, ptr, ptr, ptr, ptr, ptr, ptr, ptr, ptr, ptr, ptr, ptr, ptr, ptr, ptr, ptr, ptr, ptr, ptr, ptr, ptr, ptr, ptr, ptr, ptr, ptr, ptr, ptr, ptr, ptr, ptr, ptr, ptr, ptr, ptr, ptr, ptr, ptr, ptr, ptr, ptr, ptr, ptr, ptr, ptr, ptr, ptr, ptr, ptr, ptr, ptr, ptr, ptr, ptr, ptr, ptr, ptr, ptr, ptr, ptr, ptr, ptr, ptr, ptr, ptr, ptr, ptr, ptr, ptr, ptr, ptr, ptr, ptr, ptr, ptr, ptr, ptr, ptr, ptr, ptr, ptr, ptr, ptr, ptr, ptr, ptr, ptr, ptr, ptr, ptr, ptr, ptr, ptr, ptr, ptr, ptr, ptr, ptr, ptr, ptr, ptr, ptr, ptr, ptr, ptr, ptr, ptr, ptr, ptr, ptr, ptr, ptr, ptr, ptr, ptr, ptr, ptr, ptr, ptr, ptr, ptr, ptr, ptr, ptr, ptr, ptr, ptr, ptr, ptr, ptr, ptr, ptr, ptr, ptr, ptr, ptr, ptr, ptr, ptr, ptr, ptr, ptr, ptr, ptr, ptr, ptr, ptr, ptr, ptr, ptr, ptr, ptr, ptr, ptr, ptr, ptr, ptr, ptr, ptr, ptr, ptr, ptr, ptr, ptr, ptr, ptr, ptr, ptr, ptr, ptr, ptr, ptr, ptr, ptr, ptr, ptr, ptr, ptr, ptr, ptr, ptr, ptr, ptr, ptr, ptr, ptr, ptr }

@IO_fd_fdID = external global ptr, align 8
@.str = private unnamed_addr constant [10 x i8] c"/dev/null\00", align 1
@.str.1 = private unnamed_addr constant [22 x i8] c"open /dev/null failed\00", align 1
@.str.2 = private unnamed_addr constant [13 x i8] c"close failed\00", align 1

; Function Attrs: nounwind uwtable
define hidden void @fileDescriptorClose(ptr noundef %0, ptr noundef %1) #0 {
  %3 = alloca ptr, align 8
  %4 = alloca ptr, align 8
  %5 = alloca i32, align 4
  %6 = alloca i32, align 4
  %7 = alloca i32, align 4
  store ptr %0, ptr %3, align 8
  store ptr %1, ptr %4, align 8
  %8 = load ptr, ptr %3, align 8
  %9 = load ptr, ptr %8, align 8
  %10 = getelementptr inbounds %struct.JNINativeInterface_, ptr %9, i32 0, i32 100
  %11 = load ptr, ptr %10, align 8
  %12 = load ptr, ptr %3, align 8
  %13 = load ptr, ptr %4, align 8
  %14 = load ptr, ptr @IO_fd_fdID, align 8
  %15 = call i32 %11(ptr noundef %12, ptr noundef %13, ptr noundef %14)
  store i32 %15, ptr %5, align 4
  %16 = load ptr, ptr %3, align 8
  %17 = load ptr, ptr %16, align 8
  %18 = getelementptr inbounds %struct.JNINativeInterface_, ptr %17, i32 0, i32 15
  %19 = load ptr, ptr %18, align 8
  %20 = load ptr, ptr %3, align 8
  %21 = call ptr %19(ptr noundef %20)
  %22 = icmp ne ptr %21, null
  br i1 %22, label %23, label %24

23:                                               ; preds = %2
  br label %83

24:                                               ; preds = %2
  %25 = load i32, ptr %5, align 4
  %26 = icmp eq i32 %25, -1
  br i1 %26, label %27, label %28

27:                                               ; preds = %24
  br label %83

28:                                               ; preds = %24
  %29 = load ptr, ptr %3, align 8
  %30 = load ptr, ptr %29, align 8
  %31 = getelementptr inbounds %struct.JNINativeInterface_, ptr %30, i32 0, i32 109
  %32 = load ptr, ptr %31, align 8
  %33 = load ptr, ptr %3, align 8
  %34 = load ptr, ptr %4, align 8
  %35 = load ptr, ptr @IO_fd_fdID, align 8
  call void %32(ptr noundef %33, ptr noundef %34, ptr noundef %35, i32 noundef -1)
  %36 = load ptr, ptr %3, align 8
  %37 = load ptr, ptr %36, align 8
  %38 = getelementptr inbounds %struct.JNINativeInterface_, ptr %37, i32 0, i32 15
  %39 = load ptr, ptr %38, align 8
  %40 = load ptr, ptr %3, align 8
  %41 = call ptr %39(ptr noundef %40)
  %42 = icmp ne ptr %41, null
  br i1 %42, label %43, label %44

43:                                               ; preds = %28
  br label %83

44:                                               ; preds = %28
  %45 = load i32, ptr %5, align 4
  %46 = icmp sge i32 %45, 0
  br i1 %46, label %47, label %71

47:                                               ; preds = %44
  %48 = load i32, ptr %5, align 4
  %49 = icmp sle i32 %48, 2
  br i1 %49, label %50, label %71

50:                                               ; preds = %47
  %51 = call i32 (ptr, i32, ...) @open64(ptr noundef @.str, i32 noundef 1)
  store i32 %51, ptr %6, align 4
  %52 = load i32, ptr %6, align 4
  %53 = icmp slt i32 %52, 0
  br i1 %53, label %54, label %64

54:                                               ; preds = %50
  %55 = load ptr, ptr %3, align 8
  %56 = load ptr, ptr %55, align 8
  %57 = getelementptr inbounds %struct.JNINativeInterface_, ptr %56, i32 0, i32 109
  %58 = load ptr, ptr %57, align 8
  %59 = load ptr, ptr %3, align 8
  %60 = load ptr, ptr %4, align 8
  %61 = load ptr, ptr @IO_fd_fdID, align 8
  %62 = load i32, ptr %5, align 4
  call void %58(ptr noundef %59, ptr noundef %60, ptr noundef %61, i32 noundef %62)
  %63 = load ptr, ptr %3, align 8
  call void @JNU_ThrowIOExceptionWithLastError(ptr noundef %63, ptr noundef @.str.1)
  br label %70

64:                                               ; preds = %50
  %65 = load i32, ptr %6, align 4
  %66 = load i32, ptr %5, align 4
  %67 = call i32 @dup2(i32 noundef %65, i32 noundef %66) #6
  %68 = load i32, ptr %6, align 4
  %69 = call i32 @close(i32 noundef %68)
  br label %70

70:                                               ; preds = %64, %54
  br label %83

71:                                               ; preds = %47, %44
  %72 = load i32, ptr %5, align 4
  %73 = call i32 @close(i32 noundef %72)
  store i32 %73, ptr %7, align 4
  %74 = load i32, ptr %7, align 4
  %75 = icmp eq i32 %74, -1
  br i1 %75, label %76, label %82

76:                                               ; preds = %71
  %77 = call ptr @__errno_location() #5
  %78 = load i32, ptr %77, align 4
  %79 = icmp ne i32 %78, 4
  br i1 %79, label %80, label %82

80:                                               ; preds = %76
  %81 = load ptr, ptr %3, align 8
  call void @JNU_ThrowIOExceptionWithLastError(ptr noundef %81, ptr noundef @.str.2)
  br label %82

82:                                               ; preds = %80, %76, %71
  br label %83

83:                                               ; preds = %82, %70, %43, %27, %23
  ret void
}