; Function Attrs: nounwind uwtable
define hidden void @fileDescriptorClose(ptr noundef %0, ptr noundef %1) local_unnamed_addr #0 {
  %3 = load ptr, ptr %0, align 8
  %4 = getelementptr inbounds i8, ptr %3, i64 800
  %5 = load ptr, ptr %4, align 8
  %6 = load ptr, ptr @IO_fd_fdID, align 8
  %7 = tail call i32 %5(ptr noundef nonnull %0, ptr noundef %1, ptr noundef %6) #8
  %8 = load ptr, ptr %0, align 8
  %9 = getelementptr inbounds i8, ptr %8, i64 120
  %10 = load ptr, ptr %9, align 8
  %11 = tail call ptr %10(ptr noundef nonnull %0) #8
  %12 = icmp ne ptr %11, null
  %13 = icmp eq i32 %7, -1
  %or.cond3 = select i1 %12, i1 true, i1 %13
  br i1 %or.cond3, label %42, label %14

14:                                               ; preds = %2
  %15 = load ptr, ptr %0, align 8
  %16 = getelementptr inbounds i8, ptr %15, i64 872
  %17 = load ptr, ptr %16, align 8
  %18 = load ptr, ptr @IO_fd_fdID, align 8
  tail call void %17(ptr noundef nonnull %0, ptr noundef %1, ptr noundef %18, i32 noundef -1) #8
  %19 = load ptr, ptr %0, align 8
  %20 = getelementptr inbounds i8, ptr %19, i64 120
  %21 = load ptr, ptr %20, align 8
  %22 = tail call ptr %21(ptr noundef nonnull %0) #8
  %.not = icmp eq ptr %22, null
  br i1 %.not, label %23, label %42

23:                                               ; preds = %14
  %or.cond = icmp ult i32 %7, 3
  br i1 %or.cond, label %24, label %35

24:                                               ; preds = %23
  %25 = tail call i32 (ptr, i32, ...) @open64(ptr noundef nonnull @.str, i32 noundef 1) #8
  %26 = icmp slt i32 %25, 0
  br i1 %26, label %27, label %32

27:                                               ; preds = %24
  %28 = load ptr, ptr %0, align 8
  %29 = getelementptr inbounds i8, ptr %28, i64 872
  %30 = load ptr, ptr %29, align 8
  %31 = load ptr, ptr @IO_fd_fdID, align 8
  tail call void %30(ptr noundef nonnull %0, ptr noundef %1, ptr noundef %31, i32 noundef %7) #8
  tail call void @JNU_ThrowIOExceptionWithLastError(ptr noundef nonnull %0, ptr noundef nonnull @.str.1) #8
  br label %42

32:                                               ; preds = %24
  %33 = tail call i32 @dup2(i32 noundef %25, i32 noundef %7) #8
  %34 = tail call i32 @close(i32 noundef %25) #8
  br label %42

35:                                               ; preds = %23
  %36 = tail call i32 @close(i32 noundef %7) #8
  %37 = icmp eq i32 %36, -1
  br i1 %37, label %38, label %42

38:                                               ; preds = %35
  %39 = tail call ptr @__errno_location() #9
  %40 = load i32, ptr %39, align 4
  %.not28 = icmp eq i32 %40, 4
  br i1 %.not28, label %42, label %41

41:                                               ; preds = %38
  tail call void @JNU_ThrowIOExceptionWithLastError(ptr noundef nonnull %0, ptr noundef nonnull @.str.2) #8
  br label %42

42:                                               ; preds = %35, %38, %41, %27, %32, %14, %2
  ret void
}